target datalayout = "e-m:e-p270:32:32-p271:32:32-p272:64:64-i64:64-i128:128-f80:128-n8:16:32:64-S128"
target triple = "x86_64-pc-linux-gnu"

%struct.expert_field = type { i32, i32 }
%struct.MessageHeader = type { [4 x i8], %struct.Version, i8, i8, i32, i32, i32, ptr }
%struct.Version = type { i8, i8 }
%struct._packet_info = type { ptr, ptr, i32, i32, %struct.nstime_t, %struct.nstime_t, %struct.nstime_t, i8, ptr, ptr, ptr, ptr, %struct._address, %struct._address, %struct._address, %struct._address, %struct._address, %struct._address, i32, ptr, i8, [3 x i8], %struct.anon, i32, i32, i32, i32, ptr, i8, ptr, ptr, i16, i16, i32, i32, i16, i32, i32, ptr, ptr, ptr, i8, i8, i16, i16, i16, i32, i16, i16, ptr, ptr, ptr, ptr, ptr, i32, i32 }
%struct.nstime_t = type { i64, i32 }
%struct._address = type { i32, i32, ptr, ptr }
%struct.anon = type { i8, [3 x i8] }

@hf_giop_req_id = internal global i32 0, align 4
@hf_giop_objekt_key = internal global i32 0, align 4
@hf_giop_objekt_key_len = internal global i32 0, align 4
@ett_giop_locate_request = internal global i32 0, align 4
@ei_giop_length_too_big = internal global %struct.expert_field zeroinitializer, align 4
@.str.266 = private unnamed_addr constant [42 x i8] c"Object key length bigger than packet size\00", align 1
@.str.279 = private unnamed_addr constant [33 x i8] c"General Inter-ORB Locate Request\00", align 1
@.str.280 = private unnamed_addr constant [24 x i8] c" id=%u op=LocateRequest\00", align 1

; Function Attrs: null_pointer_is_valid sspstrong uwtable
define i32 @get_CDR_ulong(ptr noundef %0, ptr noundef %1, i1 noundef zeroext %2, i32 noundef %3) #0 {
  %5 = alloca ptr, align 8
  %6 = alloca ptr, align 8
  %7 = alloca i8, align 1
  %8 = alloca i32, align 4
  %9 = alloca i32, align 4
  store ptr %0, ptr %5, align 8
  store ptr %1, ptr %6, align 8
  %10 = zext i1 %2 to i8
  store i8 %10, ptr %7, align 1
  store i32 %3, ptr %8, align 4
  call void @llvm.lifetime.start.p0(i64 4, ptr %9) #14
  br label %11

11:                                               ; preds = %18, %4
  %12 = load ptr, ptr %6, align 8
  %13 = load i32, ptr %12, align 4
  %14 = load i32, ptr %8, align 4
  %15 = add i32 %13, %14
  %16 = srem i32 %15, 4
  %17 = icmp ne i32 %16, 0
  br i1 %17, label %18, label %22

18:                                               ; preds = %11
  %19 = load ptr, ptr %6, align 8
  %20 = load i32, ptr %19, align 4
  %21 = add i32 %20, 1
  store i32 %21, ptr %19, align 4
  br label %11, !llvm.loop !10

22:                                               ; preds = %11
  %23 = load i8, ptr %7, align 1, !range !8, !noundef !9
  %24 = trunc i8 %23 to i1
  br i1 %24, label %25, label %30

25:                                               ; preds = %22
  %26 = load ptr, ptr %5, align 8
  %27 = load ptr, ptr %6, align 8
  %28 = load i32, ptr %27, align 4
  %29 = call i32 @tvb_get_ntohl(ptr noundef %26, i32 noundef %28)
  br label %35

30:                                               ; preds = %22
  %31 = load ptr, ptr %5, align 8
  %32 = load ptr, ptr %6, align 8
  %33 = load i32, ptr %32, align 4
  %34 = call i32 @tvb_get_letohl(ptr noundef %31, i32 noundef %33)
  br label %35

35:                                               ; preds = %30, %25
  %36 = phi i32 [ %29, %25 ], [ %34, %30 ]
  store i32 %36, ptr %9, align 4
  %37 = load ptr, ptr %6, align 8
  %38 = load i32, ptr %37, align 4
  %39 = add i32 %38, 4
  store i32 %39, ptr %37, align 4
  %40 = load i32, ptr %9, align 4
  call void @llvm.lifetime.end.p0(i64 4, ptr %9) #14
  ret i32 %40
}

; Function Attrs: null_pointer_is_valid sspstrong uwtable
define internal void @dissect_giop_locate_request(ptr noundef %0, ptr noundef %1, ptr noundef %2, ptr noundef %3, i1 noundef zeroext %4) #0 {
  %6 = alloca ptr, align 8
  %7 = alloca ptr, align 8
  %8 = alloca ptr, align 8
  %9 = alloca ptr, align 8
  %10 = alloca i8, align 1
  %11 = alloca i32, align 4
  %12 = alloca i32, align 4
  %13 = alloca i32, align 4
  %14 = alloca ptr, align 8
  %15 = alloca ptr, align 8
  %16 = alloca i32, align 4
  store ptr %0, ptr %6, align 8
  store ptr %1, ptr %7, align 8
  store ptr %2, ptr %8, align 8
  store ptr %3, ptr %9, align 8
  %17 = zext i1 %4 to i8
  store i8 %17, ptr %10, align 1
  call void @llvm.lifetime.start.p0(i64 4, ptr %11) #14
  store i32 0, ptr %11, align 4
  call void @llvm.lifetime.start.p0(i64 4, ptr %12) #14
  call void @llvm.lifetime.start.p0(i64 4, ptr %13) #14
  store i32 0, ptr %13, align 4
  call void @llvm.lifetime.start.p0(i64 8, ptr %14) #14
  call void @llvm.lifetime.start.p0(i64 8, ptr %15) #14
  %18 = load ptr, ptr %8, align 8
  %19 = load ptr, ptr %6, align 8
  %20 = load i32, ptr %11, align 4
  %21 = load i32, ptr @ett_giop_locate_request, align 4
  %22 = call ptr @proto_tree_add_subtree(ptr noundef %18, ptr noundef %19, i32 noundef %20, i32 noundef -1, i32 noundef %21, ptr noundef %15, ptr noundef @.str.279)
  store ptr %22, ptr %14, align 8
  %23 = load ptr, ptr %6, align 8
  %24 = load i8, ptr %10, align 1, !range !8, !noundef !9
  %25 = trunc i8 %24 to i1
  %26 = call i32 @get_CDR_ulong(ptr noundef %23, ptr noundef %11, i1 noundef zeroext %25, i32 noundef 12)
  store i32 %26, ptr %12, align 4
  %27 = load ptr, ptr %7, align 8
  %28 = getelementptr inbounds nuw %struct._packet_info, ptr %27, i32 0, i32 1
  %29 = load ptr, ptr %28, align 8
  %30 = load i32, ptr %12, align 4
  call void (ptr, i32, ptr, ...) @col_append_fstr(ptr noundef %29, i32 noundef 25, ptr noundef @.str.280, i32 noundef %30)
  %31 = load ptr, ptr %14, align 8
  %32 = load i32, ptr @hf_giop_req_id, align 4
  %33 = load ptr, ptr %6, align 8
  %34 = load i32, ptr %11, align 4
  %35 = sub i32 %34, 4
  %36 = load i32, ptr %12, align 4
  %37 = call ptr @proto_tree_add_uint(ptr noundef %31, i32 noundef %32, ptr noundef %33, i32 noundef %35, i32 noundef 4, i32 noundef %36)
  %38 = load ptr, ptr %9, align 8
  %39 = getelementptr inbounds nuw %struct.MessageHeader, ptr %38, i32 0, i32 1
  %40 = getelementptr inbounds nuw %struct.Version, ptr %39, i32 0, i32 1
  %41 = load i8, ptr %40, align 1
  %42 = zext i8 %41 to i32
  %43 = icmp slt i32 %42, 2
  br i1 %43, label %44, label %76

44:                                               ; preds = %5
  %45 = load ptr, ptr %6, align 8
  %46 = load i8, ptr %10, align 1, !range !8, !noundef !9
  %47 = trunc i8 %46 to i1
  %48 = call i32 @get_CDR_ulong(ptr noundef %45, ptr noundef %11, i1 noundef zeroext %47, i32 noundef 12)
  store i32 %48, ptr %13, align 4
  %49 = load ptr, ptr %14, align 8
  %50 = load i32, ptr @hf_giop_objekt_key_len, align 4
  %51 = load ptr, ptr %6, align 8
  %52 = load i32, ptr %11, align 4
  %53 = sub i32 %52, 4
  %54 = load i32, ptr %13, align 4
  %55 = call ptr @proto_tree_add_uint(ptr noundef %49, i32 noundef %50, ptr noundef %51, i32 noundef %53, i32 noundef 4, i32 noundef %54)
  %56 = load i32, ptr %13, align 4
  %57 = load ptr, ptr %6, align 8
  %58 = load i32, ptr %11, align 4
  %59 = call i32 @tvb_reported_length_remaining(ptr noundef %57, i32 noundef %58)
  %60 = icmp ugt i32 %56, %59
  br i1 %60, label %61, label %65

61:                                               ; preds = %44
  %62 = load ptr, ptr %7, align 8
  %63 = load ptr, ptr %15, align 8
  %64 = call ptr (ptr, ptr, ptr, ptr, ...) @expert_add_info_format(ptr noundef %62, ptr noundef %63, ptr noundef @ei_giop_length_too_big, ptr noundef @.str.266)
  store i32 1, ptr %16, align 4
  br label %83

65:                                               ; preds = %44
  %66 = load i32, ptr %13, align 4
  %67 = icmp ugt i32 %66, 0
  br i1 %67, label %68, label %75

68:                                               ; preds = %65
  %69 = load ptr, ptr %14, align 8
  %70 = load i32, ptr @hf_giop_objekt_key, align 4
  %71 = load ptr, ptr %6, align 8
  %72 = load i32, ptr %11, align 4
  %73 = load i32, ptr %13, align 4
  %74 = call ptr @proto_tree_add_item(ptr noundef %69, i32 noundef %70, ptr noundef %71, i32 noundef %72, i32 noundef %73, i32 noundef 0)
  br label %75

75:                                               ; preds = %68, %65
  br label %82

76:                                               ; preds = %5
  %77 = load ptr, ptr %6, align 8
  %78 = load ptr, ptr %7, align 8
  %79 = load ptr, ptr %14, align 8
  %80 = load i8, ptr %10, align 1, !range !8, !noundef !9
  %81 = trunc i8 %80 to i1
  call void @dissect_target_address(ptr noundef %77, ptr noundef %78, ptr noundef %11, ptr noundef %79, i1 noundef zeroext %81, ptr noundef null, ptr noundef null)
  br label %82

82:                                               ; preds = %76, %75
  store i32 0, ptr %16, align 4
  br label %83

83:                                               ; preds = %82, %61
  call void @llvm.lifetime.end.p0(i64 8, ptr %15) #14
  call void @llvm.lifetime.end.p0(i64 8, ptr %14) #14
  call void @llvm.lifetime.end.p0(i64 4, ptr %13) #14
  call void @llvm.lifetime.end.p0(i64 4, ptr %12) #14
  call void @llvm.lifetime.end.p0(i64 4, ptr %11) #14
  %84 = load i32, ptr %16, align 4
  switch i32 %84, label %86 [
    i32 0, label %85
    i32 1, label %85
  ]

85:                                               ; preds = %83, %83
  ret void

86:                                               ; preds = %83
  unreachable
}