; Function Attrs: null_pointer_is_valid sspstrong uwtable
define internal fastcc void @dissect_giop_locate_request(ptr noundef %0, ptr noundef %1, ptr noundef %2, ptr noundef readonly captures(none) %3, i1 noundef zeroext %4) unnamed_addr #0 {
  %6 = alloca i32, align 4
  %7 = alloca ptr, align 8
  call void @llvm.lifetime.start.p0(i64 4, ptr nonnull %6) #17
  call void @llvm.lifetime.start.p0(i64 8, ptr nonnull %7) #17
  %8 = load i32, ptr @ett_giop_locate_request, align 4
  %9 = call ptr @proto_tree_add_subtree(ptr noundef %2, ptr noundef %0, i32 noundef 0, i32 noundef -1, i32 noundef %8, ptr noundef nonnull %7, ptr noundef nonnull @.str.279)
  br i1 %4, label %10, label %12

10:                                               ; preds = %5
  %11 = call i32 @tvb_get_ntohl(ptr noundef %0, i32 noundef 0)
  br label %get_CDR_ulong.exit

12:                                               ; preds = %5
  %13 = call i32 @tvb_get_letohl(ptr noundef %0, i32 noundef 0)
  br label %get_CDR_ulong.exit

get_CDR_ulong.exit:                               ; preds = %10, %12
  %14 = phi i32 [ %11, %10 ], [ %13, %12 ]
  store i32 4, ptr %6, align 4
  %15 = getelementptr inbounds nuw i8, ptr %1, i64 8
  %16 = load ptr, ptr %15, align 8
  call void (ptr, i32, ptr, ...) @col_append_fstr(ptr noundef %16, i32 noundef 25, ptr noundef nonnull @.str.280, i32 noundef %14)
  %17 = load i32, ptr @hf_giop_req_id, align 4
  %18 = call ptr @proto_tree_add_uint(ptr noundef %9, i32 noundef %17, ptr noundef %0, i32 noundef 0, i32 noundef 4, i32 noundef %14)
  %19 = getelementptr inbounds nuw i8, ptr %3, i64 5
  %20 = load i8, ptr %19, align 1
  %21 = icmp ult i8 %20, 2
  br i1 %21, label %22, label %39

22:                                               ; preds = %get_CDR_ulong.exit
  br i1 %4, label %23, label %25

23:                                               ; preds = %22
  %24 = call i32 @tvb_get_ntohl(ptr noundef %0, i32 noundef 4)
  br label %get_CDR_ulong.exit30

25:                                               ; preds = %22
  %26 = call i32 @tvb_get_letohl(ptr noundef %0, i32 noundef 4)
  br label %get_CDR_ulong.exit30

get_CDR_ulong.exit30:                             ; preds = %23, %25
  %27 = phi i32 [ %24, %23 ], [ %26, %25 ]
  %28 = load i32, ptr @hf_giop_objekt_key_len, align 4
  %29 = call ptr @proto_tree_add_uint(ptr noundef %9, i32 noundef %28, ptr noundef %0, i32 noundef 4, i32 noundef 4, i32 noundef %27)
  %30 = call i32 @tvb_reported_length_remaining(ptr noundef %0, i32 noundef 8)
  %31 = icmp ugt i32 %27, %30
  br i1 %31, label %32, label %35

32:                                               ; preds = %get_CDR_ulong.exit30
  %33 = load ptr, ptr %7, align 8
  %34 = call ptr (ptr, ptr, ptr, ptr, ...) @expert_add_info_format(ptr noundef %1, ptr noundef %33, ptr noundef nonnull @ei_giop_length_too_big, ptr noundef nonnull @.str.266)
  br label %40

35:                                               ; preds = %get_CDR_ulong.exit30
  %.not = icmp eq i32 %27, 0
  br i1 %.not, label %40, label %36

36:                                               ; preds = %35
  %37 = load i32, ptr @hf_giop_objekt_key, align 4
  %38 = call ptr @proto_tree_add_item(ptr noundef %9, i32 noundef %37, ptr noundef %0, i32 noundef 8, i32 noundef %27, i32 noundef 0)
  br label %40

39:                                               ; preds = %get_CDR_ulong.exit
  call fastcc void @dissect_target_address(ptr noundef %0, ptr noundef %1, ptr noundef nonnull %6, ptr noundef %9, i1 noundef zeroext %4, ptr noundef null, ptr noundef null)
  br label %40

40:                                               ; preds = %39, %36, %35, %32
  call void @llvm.lifetime.end.p0(i64 8, ptr nonnull %7) #17
  call void @llvm.lifetime.end.p0(i64 4, ptr nonnull %6) #17
  ret void
}